SF:/home/schuakrk/repos/camera_detection_bot/src/api_client.rs
FN:302,_RNvNtNtNtCs8EXaJNKNjDm_20camera_detection_bot10api_client5tests17get_objects_testss_17test_correct_case
FN:279,_RNvNtNtNtCs8EXaJNKNjDm_20camera_detection_bot10api_client5tests17get_objects_testss_18test_image_too_big
FN:163,_RNCNCNvNtNtNtCs8EXaJNKNjDm_20camera_detection_bot10api_client5tests21change_settings_testss_17test_correct_case00Bb_
FN:139,_RNCNCNvNtNtNtCs8EXaJNKNjDm_20camera_detection_bot10api_client5tests21change_settings_testss_20test_no_such_setting00Bb_
FN:160,_RNCNvNtNtNtCs8EXaJNKNjDm_20camera_detection_bot10api_client5tests21change_settings_testss_17test_correct_case0B9_
FN:136,_RNCNvNtNtNtCs8EXaJNKNjDm_20camera_detection_bot10api_client5tests21change_settings_testss_20test_no_such_setting0B9_
FN:22,_RINvMNtCs8EXaJNKNjDm_20camera_detection_bot10api_clientNtB3_9ApiClient3newNtNtCs5aYTZ1YATQp_5alloc6string6StringEB5_
FN:85,_RNCNvMNtCs8EXaJNKNjDm_20camera_detection_bot10api_clientNtB4_9ApiClient10get_object0B6_
FN:104,_RNCNvMNtCs8EXaJNKNjDm_20camera_detection_bot10api_clientNtB4_9ApiClient11get_objects0B6_
FN:57,_RNCNvMNtCs8EXaJNKNjDm_20camera_detection_bot10api_clientNtB4_9ApiClient12get_settings0B6_
FN:30,_RNCNvMNtCs8EXaJNKNjDm_20camera_detection_bot10api_clientNtB4_9ApiClient15change_settings0B6_
FN:246,_RNvNtNtNtCs8EXaJNKNjDm_20camera_detection_bot10api_client5tests16get_object_testss_17test_correct_case
FN:222,_RNvNtNtNtCs8EXaJNKNjDm_20camera_detection_bot10api_client5tests16get_object_testss_18test_image_too_big
FN:251,_RNCNCNvNtNtNtCs8EXaJNKNjDm_20camera_detection_bot10api_client5tests16get_object_testss_17test_correct_case00Bb_
FN:227,_RNCNCNvNtNtNtCs8EXaJNKNjDm_20camera_detection_bot10api_client5tests16get_object_testss_18test_image_too_big00Bb_
FN:246,_RNCNvNtNtNtCs8EXaJNKNjDm_20camera_detection_bot10api_client5tests16get_object_testss_17test_correct_case0B9_
FN:222,_RNCNvNtNtNtCs8EXaJNKNjDm_20camera_detection_bot10api_client5tests16get_object_testss_18test_image_too_big0B9_
FN:307,_RNCNCNvNtNtNtCs8EXaJNKNjDm_20camera_detection_bot10api_client5tests17get_objects_testss_17test_correct_case00Bb_
FN:283,_RNCNCNvNtNtNtCs8EXaJNKNjDm_20camera_detection_bot10api_client5tests17get_objects_testss_18test_image_too_big00Bb_
FN:302,_RNCNvNtNtNtCs8EXaJNKNjDm_20camera_detection_bot10api_client5tests17get_objects_testss_17test_correct_case0B9_
FN:279,_RNCNvNtNtNtCs8EXaJNKNjDm_20camera_detection_bot10api_client5tests17get_objects_testss_18test_image_too_big0B9_
FN:192,_RNCNCNvNtNtNtCs8EXaJNKNjDm_20camera_detection_bot10api_client5tests17get_settings_tests_12test_correct00Bb_
FN:189,_RNCNvNtNtNtCs8EXaJNKNjDm_20camera_detection_bot10api_client5tests17get_settings_tests_12test_correct0B9_
FN:160,_RNvNtNtNtCs8EXaJNKNjDm_20camera_detection_bot10api_client5tests21change_settings_testss_17test_correct_case
FN:136,_RNvNtNtNtCs8EXaJNKNjDm_20camera_detection_bot10api_client5tests21change_settings_testss_20test_no_such_setting
FN:85,_RNvMNtCs8EXaJNKNjDm_20camera_detection_bot10api_clientNtB2_9ApiClient10get_object
FN:104,_RNvMNtCs8EXaJNKNjDm_20camera_detection_bot10api_clientNtB2_9ApiClient11get_objects
FN:57,_RNvMNtCs8EXaJNKNjDm_20camera_detection_bot10api_clientNtB2_9ApiClient12get_settings
FN:30,_RNvMNtCs8EXaJNKNjDm_20camera_detection_bot10api_clientNtB2_9ApiClient15change_settings
FN:189,_RNvNtNtNtCs8EXaJNKNjDm_20camera_detection_bot10api_client5tests17get_settings_tests_12test_correct
FNDA:1,_RNvNtNtNtCs8EXaJNKNjDm_20camera_detection_bot10api_client5tests17get_objects_testss_17test_correct_case
FNDA:1,_RNvNtNtNtCs8EXaJNKNjDm_20camera_detection_bot10api_client5tests17get_objects_testss_18test_image_too_big
FNDA:1,_RNCNCNvNtNtNtCs8EXaJNKNjDm_20camera_detection_bot10api_client5tests21change_settings_testss_17test_correct_case00Bb_
FNDA:1,_RNCNCNvNtNtNtCs8EXaJNKNjDm_20camera_detection_bot10api_client5tests21change_settings_testss_20test_no_such_setting00Bb_
FNDA:1,_RNCNvNtNtNtCs8EXaJNKNjDm_20camera_detection_bot10api_client5tests21change_settings_testss_17test_correct_case0B9_
FNDA:1,_RNCNvNtNtNtCs8EXaJNKNjDm_20camera_detection_bot10api_client5tests21change_settings_testss_20test_no_such_setting0B9_
FNDA:20,_RINvMNtCs8EXaJNKNjDm_20camera_detection_bot10api_clientNtB3_9ApiClient3newNtNtCs5aYTZ1YATQp_5alloc6string6StringEB5_
FNDA:5,_RNCNvMNtCs8EXaJNKNjDm_20camera_detection_bot10api_clientNtB4_9ApiClient10get_object0B6_
FNDA:5,_RNCNvMNtCs8EXaJNKNjDm_20camera_detection_bot10api_clientNtB4_9ApiClient11get_objects0B6_
FNDA:4,_RNCNvMNtCs8EXaJNKNjDm_20camera_detection_bot10api_clientNtB4_9ApiClient12get_settings0B6_
FNDA:4,_RNCNvMNtCs8EXaJNKNjDm_20camera_detection_bot10api_clientNtB4_9ApiClient15change_settings0B6_
FNDA:1,_RNvNtNtNtCs8EXaJNKNjDm_20camera_detection_bot10api_client5tests16get_object_testss_17test_correct_case
FNDA:1,_RNvNtNtNtCs8EXaJNKNjDm_20camera_detection_bot10api_client5tests16get_object_testss_18test_image_too_big
FNDA:1,_RNCNCNvNtNtNtCs8EXaJNKNjDm_20camera_detection_bot10api_client5tests16get_object_testss_17test_correct_case00Bb_
FNDA:1,_RNCNCNvNtNtNtCs8EXaJNKNjDm_20camera_detection_bot10api_client5tests16get_object_testss_18test_image_too_big00Bb_
FNDA:1,_RNCNvNtNtNtCs8EXaJNKNjDm_20camera_detection_bot10api_client5tests16get_object_testss_17test_correct_case0B9_
FNDA:1,_RNCNvNtNtNtCs8EXaJNKNjDm_20camera_detection_bot10api_client5tests16get_object_testss_18test_image_too_big0B9_
FNDA:1,_RNCNCNvNtNtNtCs8EXaJNKNjDm_20camera_detection_bot10api_client5tests17get_objects_testss_17test_correct_case00Bb_
FNDA:1,_RNCNCNvNtNtNtCs8EXaJNKNjDm_20camera_detection_bot10api_client5tests17get_objects_testss_18test_image_too_big00Bb_
FNDA:1,_RNCNvNtNtNtCs8EXaJNKNjDm_20camera_detection_bot10api_client5tests17get_objects_testss_17test_correct_case0B9_
FNDA:1,_RNCNvNtNtNtCs8EXaJNKNjDm_20camera_detection_bot10api_client5tests17get_objects_testss_18test_image_too_big0B9_
FNDA:1,_RNCNCNvNtNtNtCs8EXaJNKNjDm_20camera_detection_bot10api_client5tests17get_settings_tests_12test_correct00Bb_
FNDA:1,_RNCNvNtNtNtCs8EXaJNKNjDm_20camera_detection_bot10api_client5tests17get_settings_tests_12test_correct0B9_
FNDA:1,_RNvNtNtNtCs8EXaJNKNjDm_20camera_detection_bot10api_client5tests21change_settings_testss_17test_correct_case
FNDA:1,_RNvNtNtNtCs8EXaJNKNjDm_20camera_detection_bot10api_client5tests21change_settings_testss_20test_no_such_setting
FNDA:5,_RNvMNtCs8EXaJNKNjDm_20camera_detection_bot10api_clientNtB2_9ApiClient10get_object
FNDA:5,_RNvMNtCs8EXaJNKNjDm_20camera_detection_bot10api_clientNtB2_9ApiClient11get_objects
FNDA:4,_RNvMNtCs8EXaJNKNjDm_20camera_detection_bot10api_clientNtB2_9ApiClient12get_settings
FNDA:4,_RNvMNtCs8EXaJNKNjDm_20camera_detection_bot10api_clientNtB2_9ApiClient15change_settings
FNDA:1,_RNvNtNtNtCs8EXaJNKNjDm_20camera_detection_bot10api_client5tests17get_settings_tests_12test_correct
FNF:30
FNH:30
DA:22,20
DA:23,20
DA:24,20
DA:25,20
DA:26,20
DA:27,20
DA:30,4
DA:31,4
DA:32,4
DA:34,4
DA:36,4
DA:38,2
DA:39,2
DA:42,0
DA:43,0
DA:46,1
DA:47,1
DA:49,1
DA:50,1
DA:51,1
DA:54,4
DA:57,4
DA:58,4
DA:59,4
DA:61,4
DA:63,4
DA:65,3
DA:66,3
DA:67,2
DA:68,2
DA:69,2
DA:71,1
DA:72,1
DA:73,1
DA:77,1
DA:78,1
DA:79,1
DA:82,4
DA:85,5
DA:86,5
DA:87,5
DA:89,5
DA:91,5
DA:93,3
DA:94,3
DA:96,2
DA:97,2
DA:98,2
DA:101,5
DA:104,5
DA:105,5
DA:106,5
DA:108,5
DA:110,5
DA:112,3
DA:113,3
DA:115,2
DA:116,2
DA:117,2
DA:120,5
DA:136,1
DA:137,1
DA:138,1
DA:139,1
DA:140,1
DA:141,1
DA:142,1
DA:143,1
DA:144,1
DA:145,1
DA:146,1
DA:147,1
DA:148,1
DA:149,1
DA:150,1
DA:151,1
DA:152,1
DA:153,1
DA:154,1
DA:155,1
DA:156,1
DA:160,1
DA:161,1
DA:162,1
DA:163,1
DA:164,1
DA:165,1
DA:166,1
DA:167,1
DA:168,1
DA:169,1
DA:170,1
DA:171,1
DA:172,1
DA:173,1
DA:174,1
DA:175,1
DA:176,1
DA:177,1
DA:178,1
DA:179,1
DA:180,1
DA:189,1
DA:190,1
DA:191,1
DA:192,1
DA:193,1
DA:194,1
DA:195,1
DA:196,1
DA:197,1
DA:198,1
DA:199,1
DA:200,1
DA:201,1
DA:202,1
DA:203,1
DA:204,1
DA:205,1
DA:206,1
DA:207,1
DA:208,1
DA:209,1
DA:210,1
DA:211,1
DA:212,1
DA:213,1
DA:222,1
DA:223,1
DA:224,1
DA:225,1
DA:226,1
DA:227,1
DA:228,1
DA:229,1
DA:230,1
DA:231,1
DA:232,1
DA:233,1
DA:234,1
DA:235,1
DA:236,1
DA:237,1
DA:238,1
DA:239,1
DA:240,1
DA:241,1
DA:242,1
DA:246,1
DA:247,1
DA:248,1
DA:249,1
DA:250,1
DA:251,1
DA:252,1
DA:253,1
DA:254,1
DA:255,1
DA:256,1
DA:257,1
DA:258,1
DA:259,1
DA:260,1
DA:261,1
DA:262,1
DA:263,1
DA:264,1
DA:265,1
DA:266,1
DA:267,1
DA:268,1
DA:269,1
DA:270,1
DA:279,1
DA:280,1
DA:281,1
DA:282,1
DA:283,1
DA:284,1
DA:285,1
DA:286,1
DA:287,1
DA:288,1
DA:289,1
DA:290,1
DA:291,1
DA:292,1
DA:293,1
DA:294,1
DA:295,1
DA:296,1
DA:297,1
DA:298,1
DA:302,1
DA:303,1
DA:304,1
DA:305,1
DA:306,1
DA:307,1
DA:308,1
DA:309,1
DA:310,1
DA:311,1
DA:312,1
DA:313,1
DA:314,1
DA:315,1
DA:316,1
DA:317,1
DA:318,1
DA:319,1
DA:320,1
DA:321,1
DA:322,1
DA:323,1
DA:324,1
DA:325,1
DA:326,1
BRF:0
BRH:0
LF:359
LH:357
end_of_record
SF:/home/schuakrk/repos/camera_detection_bot/src/bot.rs
FN:590,_RNCNCNCNvNtNtNtCs8EXaJNKNjDm_20camera_detection_bot3bot5tests21change_settings_testss_12test_correct000Bd_
FN:558,_RNCNCNCNvNtNtNtCs8EXaJNKNjDm_20camera_detection_bot3bot5tests21change_settings_testss_9test_fail000Bd_
FN:585,_RNCNCNvNtNtNtCs8EXaJNKNjDm_20camera_detection_bot3bot5tests21change_settings_testss_12test_correct00Bb_
FN:529,_RNCNCNvNtNtNtCs8EXaJNKNjDm_20camera_detection_bot3bot5tests21change_settings_testss_23test_incorrect_settings00Bb_
FN:553,_RNCNCNvNtNtNtCs8EXaJNKNjDm_20camera_detection_bot3bot5tests21change_settings_testss_9test_fail00Bb_
FN:585,_RNCNvNtNtNtCs8EXaJNKNjDm_20camera_detection_bot3bot5tests21change_settings_testss_12test_correct0B9_
FN:529,_RNCNvNtNtNtCs8EXaJNKNjDm_20camera_detection_bot3bot5tests21change_settings_testss_23test_incorrect_settings0B9_
FN:553,_RNCNvNtNtNtCs8EXaJNKNjDm_20camera_detection_bot3bot5tests21change_settings_testss_9test_fail0B9_
FN:12,_RNCNvNtCs8EXaJNKNjDm_20camera_detection_bot3bot15get_api_address0B5_
FN:188,_RNCNvNtCs8EXaJNKNjDm_20camera_detection_bot3bot7run_bot0B5_
FN:9,_RNvNtCs8EXaJNKNjDm_20camera_detection_bot3bot15get_api_address
FN:188,_RNvNtCs8EXaJNKNjDm_20camera_detection_bot3bot7run_bot
FN:281,_RNCNCNCNvNtNtNtCs8EXaJNKNjDm_20camera_detection_bot3bot5tests19current_state_testss_12test_correct000Bd_
FN:225,_RNCNCNCNvNtNtNtCs8EXaJNKNjDm_20camera_detection_bot3bot5tests19current_state_testss_21test_erroneous_server000Bd_
FN:251,_RNCNCNCNvNtNtNtCs8EXaJNKNjDm_20camera_detection_bot3bot5tests19current_state_testss_21test_incorrect_base64000Bd_
FN:275,_RNCNCNvNtNtNtCs8EXaJNKNjDm_20camera_detection_bot3bot5tests19current_state_testss_12test_correct00Bb_
FN:222,_RNCNCNvNtNtNtCs8EXaJNKNjDm_20camera_detection_bot3bot5tests19current_state_testss_21test_erroneous_server00Bb_
FN:247,_RNCNCNvNtNtNtCs8EXaJNKNjDm_20camera_detection_bot3bot5tests19current_state_testss_21test_incorrect_base6400Bb_
FN:275,_RNCNvNtNtNtCs8EXaJNKNjDm_20camera_detection_bot3bot5tests19current_state_testss_12test_correct0B9_
FN:222,_RNCNvNtNtNtCs8EXaJNKNjDm_20camera_detection_bot3bot5tests19current_state_testss_21test_erroneous_server0B9_
FN:247,_RNCNvNtNtNtCs8EXaJNKNjDm_20camera_detection_bot3bot5tests19current_state_testss_21test_incorrect_base640B9_
FN:24,_RNCNCNvXs_NtCs8EXaJNKNjDm_20camera_detection_bot3botNtB8_7CommandNtNtNtCs9eWoJKfSut4_8teloxide5utils7command11BotCommands5parse00Ba_
FN:24,_RNCNCNvXs_NtCs8EXaJNKNjDm_20camera_detection_bot3botNtB8_7CommandNtNtNtCs9eWoJKfSut4_8teloxide5utils7command11BotCommands5parses0_00Ba_
FN:24,_RNCNCNvXs_NtCs8EXaJNKNjDm_20camera_detection_bot3botNtB8_7CommandNtNtNtCs9eWoJKfSut4_8teloxide5utils7command11BotCommands5parses1_00Ba_
FN:24,_RNCNCNvXs_NtCs8EXaJNKNjDm_20camera_detection_bot3botNtB8_7CommandNtNtNtCs9eWoJKfSut4_8teloxide5utils7command11BotCommands5parses2_00Ba_
FN:24,_RNCNCNvXs_NtCs8EXaJNKNjDm_20camera_detection_bot3botNtB8_7CommandNtNtNtCs9eWoJKfSut4_8teloxide5utils7command11BotCommands5parses3_00Ba_
FN:24,_RNCNCNvXs_NtCs8EXaJNKNjDm_20camera_detection_bot3botNtB8_7CommandNtNtNtCs9eWoJKfSut4_8teloxide5utils7command11BotCommands5parses_00Ba_
FN:54,_RNCNvNtCs8EXaJNKNjDm_20camera_detection_bot3bot6answer0B5_
FN:179,_RNvNtCs8EXaJNKNjDm_20camera_detection_bot3bot12handler_tree
FN:18,_RNvNtCs8EXaJNKNjDm_20camera_detection_bot3bot16convert_to_image
FN:54,_RNvNtCs8EXaJNKNjDm_20camera_detection_bot3bot6answer
FN:375,_RNCNCNCNvNtNtNtCs8EXaJNKNjDm_20camera_detection_bot3bot5tests14where_is_testss_12test_correct000Bd_
FN:313,_RNCNCNCNvNtNtNtCs8EXaJNKNjDm_20camera_detection_bot3bot5tests14where_is_testss_21test_erroneous_server000Bd_
FN:342,_RNCNCNCNvNtNtNtCs8EXaJNKNjDm_20camera_detection_bot3bot5tests14where_is_testss_21test_incorrect_base64000Bd_
FN:369,_RNCNCNvNtNtNtCs8EXaJNKNjDm_20camera_detection_bot3bot5tests14where_is_testss_12test_correct00Bb_
FN:310,_RNCNCNvNtNtNtCs8EXaJNKNjDm_20camera_detection_bot3bot5tests14where_is_testss_21test_erroneous_server00Bb_
FN:338,_RNCNCNvNtNtNtCs8EXaJNKNjDm_20camera_detection_bot3bot5tests14where_is_testss_21test_incorrect_base6400Bb_
FN:369,_RNCNvNtNtNtCs8EXaJNKNjDm_20camera_detection_bot3bot5tests14where_is_testss_12test_correct0B9_
FN:310,_RNCNvNtNtNtCs8EXaJNKNjDm_20camera_detection_bot3bot5tests14where_is_testss_21test_erroneous_server0B9_
FN:338,_RNCNvNtNtNtCs8EXaJNKNjDm_20camera_detection_bot3bot5tests14where_is_testss_21test_incorrect_base640B9_
FN:496,_RNCNCNCNvNtNtNtCs8EXaJNKNjDm_20camera_detection_bot3bot5tests18get_settings_testss_12test_correct000Bd_
FN:434,_RNCNCNCNvNtNtNtCs8EXaJNKNjDm_20camera_detection_bot3bot5tests18get_settings_testss_21test_erroneous_server000Bd_
FN:464,_RNCNCNCNvNtNtNtCs8EXaJNKNjDm_20camera_detection_bot3bot5tests18get_settings_testss_23test_incorrect_response000Bd_
FN:491,_RNCNCNvNtNtNtCs8EXaJNKNjDm_20camera_detection_bot3bot5tests18get_settings_testss_12test_correct00Bb_
FN:431,_RNCNCNvNtNtNtCs8EXaJNKNjDm_20camera_detection_bot3bot5tests18get_settings_testss_21test_erroneous_server00Bb_
FN:409,_RNCNCNvNtNtNtCs8EXaJNKNjDm_20camera_detection_bot3bot5tests18get_settings_testss_23test_incorrect_receiver00Bb_
FN:459,_RNCNCNvNtNtNtCs8EXaJNKNjDm_20camera_detection_bot3bot5tests18get_settings_testss_23test_incorrect_response00Bb_
FN:491,_RNCNvNtNtNtCs8EXaJNKNjDm_20camera_detection_bot3bot5tests18get_settings_testss_12test_correct0B9_
FN:431,_RNCNvNtNtNtCs8EXaJNKNjDm_20camera_detection_bot3bot5tests18get_settings_testss_21test_erroneous_server0B9_
FN:409,_RNCNvNtNtNtCs8EXaJNKNjDm_20camera_detection_bot3bot5tests18get_settings_testss_23test_incorrect_receiver0B9_
FN:459,_RNCNvNtNtNtCs8EXaJNKNjDm_20camera_detection_bot3bot5tests18get_settings_testss_23test_incorrect_response0B9_
FNDA:1,_RNCNCNCNvNtNtNtCs8EXaJNKNjDm_20camera_detection_bot3bot5tests21change_settings_testss_12test_correct000Bd_
FNDA:1,_RNCNCNCNvNtNtNtCs8EXaJNKNjDm_20camera_detection_bot3bot5tests21change_settings_testss_9test_fail000Bd_
FNDA:1,_RNCNCNvNtNtNtCs8EXaJNKNjDm_20camera_detection_bot3bot5tests21change_settings_testss_12test_correct00Bb_
FNDA:1,_RNCNCNvNtNtNtCs8EXaJNKNjDm_20camera_detection_bot3bot5tests21change_settings_testss_23test_incorrect_settings00Bb_
FNDA:1,_RNCNCNvNtNtNtCs8EXaJNKNjDm_20camera_detection_bot3bot5tests21change_settings_testss_9test_fail00Bb_
FNDA:1,_RNCNvNtNtNtCs8EXaJNKNjDm_20camera_detection_bot3bot5tests21change_settings_testss_12test_correct0B9_
FNDA:1,_RNCNvNtNtNtCs8EXaJNKNjDm_20camera_detection_bot3bot5tests21change_settings_testss_23test_incorrect_settings0B9_
FNDA:1,_RNCNvNtNtNtCs8EXaJNKNjDm_20camera_detection_bot3bot5tests21change_settings_testss_9test_fail0B9_
FNDA:0,_RNCNvNtCs8EXaJNKNjDm_20camera_detection_bot3bot15get_api_address0B5_
FNDA:0,_RNCNvNtCs8EXaJNKNjDm_20camera_detection_bot3bot7run_bot0B5_
FNDA:0,_RNvNtCs8EXaJNKNjDm_20camera_detection_bot3bot15get_api_address
FNDA:0,_RNvNtCs8EXaJNKNjDm_20camera_detection_bot3bot7run_bot
FNDA:1,_RNCNCNCNvNtNtNtCs8EXaJNKNjDm_20camera_detection_bot3bot5tests19current_state_testss_12test_correct000Bd_
FNDA:1,_RNCNCNCNvNtNtNtCs8EXaJNKNjDm_20camera_detection_bot3bot5tests19current_state_testss_21test_erroneous_server000Bd_
FNDA:1,_RNCNCNCNvNtNtNtCs8EXaJNKNjDm_20camera_detection_bot3bot5tests19current_state_testss_21test_incorrect_base64000Bd_
FNDA:1,_RNCNCNvNtNtNtCs8EXaJNKNjDm_20camera_detection_bot3bot5tests19current_state_testss_12test_correct00Bb_
FNDA:1,_RNCNCNvNtNtNtCs8EXaJNKNjDm_20camera_detection_bot3bot5tests19current_state_testss_21test_erroneous_server00Bb_
FNDA:1,_RNCNCNvNtNtNtCs8EXaJNKNjDm_20camera_detection_bot3bot5tests19current_state_testss_21test_incorrect_base6400Bb_
FNDA:1,_RNCNvNtNtNtCs8EXaJNKNjDm_20camera_detection_bot3bot5tests19current_state_testss_12test_correct0B9_
FNDA:1,_RNCNvNtNtNtCs8EXaJNKNjDm_20camera_detection_bot3bot5tests19current_state_testss_21test_erroneous_server0B9_
FNDA:1,_RNCNvNtNtNtCs8EXaJNKNjDm_20camera_detection_bot3bot5tests19current_state_testss_21test_incorrect_base640B9_
FNDA:0,_RNCNCNvXs_NtCs8EXaJNKNjDm_20camera_detection_bot3botNtB8_7CommandNtNtNtCs9eWoJKfSut4_8teloxide5utils7command11BotCommands5parse00Ba_
FNDA:0,_RNCNCNvXs_NtCs8EXaJNKNjDm_20camera_detection_bot3botNtB8_7CommandNtNtNtCs9eWoJKfSut4_8teloxide5utils7command11BotCommands5parses0_00Ba_
FNDA:0,_RNCNCNvXs_NtCs8EXaJNKNjDm_20camera_detection_bot3botNtB8_7CommandNtNtNtCs9eWoJKfSut4_8teloxide5utils7command11BotCommands5parses1_00Ba_
FNDA:0,_RNCNCNvXs_NtCs8EXaJNKNjDm_20camera_detection_bot3botNtB8_7CommandNtNtNtCs9eWoJKfSut4_8teloxide5utils7command11BotCommands5parses2_00Ba_
FNDA:0,_RNCNCNvXs_NtCs8EXaJNKNjDm_20camera_detection_bot3botNtB8_7CommandNtNtNtCs9eWoJKfSut4_8teloxide5utils7command11BotCommands5parses3_00Ba_
FNDA:0,_RNCNCNvXs_NtCs8EXaJNKNjDm_20camera_detection_bot3botNtB8_7CommandNtNtNtCs9eWoJKfSut4_8teloxide5utils7command11BotCommands5parses_00Ba_
FNDA:13,_RNCNvNtCs8EXaJNKNjDm_20camera_detection_bot3bot6answer0B5_
FNDA:13,_RNvNtCs8EXaJNKNjDm_20camera_detection_bot3bot12handler_tree
FNDA:4,_RNvNtCs8EXaJNKNjDm_20camera_detection_bot3bot16convert_to_image
FNDA:13,_RNvNtCs8EXaJNKNjDm_20camera_detection_bot3bot6answer
FNDA:1,_RNCNCNCNvNtNtNtCs8EXaJNKNjDm_20camera_detection_bot3bot5tests14where_is_testss_12test_correct000Bd_
FNDA:1,_RNCNCNCNvNtNtNtCs8EXaJNKNjDm_20camera_detection_bot3bot5tests14where_is_testss_21test_erroneous_server000Bd_
FNDA:1,_RNCNCNCNvNtNtNtCs8EXaJNKNjDm_20camera_detection_bot3bot5tests14where_is_testss_21test_incorrect_base64000Bd_
FNDA:1,_RNCNCNvNtNtNtCs8EXaJNKNjDm_20camera_detection_bot3bot5tests14where_is_testss_12test_correct00Bb_
FNDA:1,_RNCNCNvNtNtNtCs8EXaJNKNjDm_20camera_detection_bot3bot5tests14where_is_testss_21test_erroneous_server00Bb_
FNDA:1,_RNCNCNvNtNtNtCs8EXaJNKNjDm_20camera_detection_bot3bot5tests14where_is_testss_21test_incorrect_base6400Bb_
FNDA:1,_RNCNvNtNtNtCs8EXaJNKNjDm_20camera_detection_bot3bot5tests14where_is_testss_12test_correct0B9_
FNDA:1,_RNCNvNtNtNtCs8EXaJNKNjDm_20camera_detection_bot3bot5tests14where_is_testss_21test_erroneous_server0B9_
FNDA:1,_RNCNvNtNtNtCs8EXaJNKNjDm_20camera_detection_bot3bot5tests14where_is_testss_21test_incorrect_base640B9_
FNDA:1,_RNCNCNCNvNtNtNtCs8EXaJNKNjDm_20camera_detection_bot3bot5tests18get_settings_testss_12test_correct000Bd_
FNDA:1,_RNCNCNCNvNtNtNtCs8EXaJNKNjDm_20camera_detection_bot3bot5tests18get_settings_testss_21test_erroneous_server000Bd_
FNDA:1,_RNCNCNCNvNtNtNtCs8EXaJNKNjDm_20camera_detection_bot3bot5tests18get_settings_testss_23test_incorrect_response000Bd_
FNDA:1,_RNCNCNvNtNtNtCs8EXaJNKNjDm_20camera_detection_bot3bot5tests18get_settings_testss_12test_correct00Bb_
FNDA:1,_RNCNCNvNtNtNtCs8EXaJNKNjDm_20camera_detection_bot3bot5tests18get_settings_testss_21test_erroneous_server00Bb_
FNDA:1,_RNCNCNvNtNtNtCs8EXaJNKNjDm_20camera_detection_bot3bot5tests18get_settings_testss_23test_incorrect_receiver00Bb_
FNDA:1,_RNCNCNvNtNtNtCs8EXaJNKNjDm_20camera_detection_bot3bot5tests18get_settings_testss_23test_incorrect_response00Bb_
FNDA:1,_RNCNvNtNtNtCs8EXaJNKNjDm_20camera_detection_bot3bot5tests18get_settings_testss_12test_correct0B9_
FNDA:1,_RNCNvNtNtNtCs8EXaJNKNjDm_20camera_detection_bot3bot5tests18get_settings_testss_21test_erroneous_server0B9_
FNDA:1,_RNCNvNtNtNtCs8EXaJNKNjDm_20camera_detection_bot3bot5tests18get_settings_testss_23test_incorrect_receiver0B9_
FNDA:1,_RNCNvNtNtNtCs8EXaJNKNjDm_20camera_detection_bot3bot5tests18get_settings_testss_23test_incorrect_response0B9_
FNF:33
FNH:28
DA:9,0
DA:10,0
DA:12,0
DA:13,0
DA:18,4
DA:19,4
DA:20,4
DA:21,4
DA:24,0
DA:54,13
DA:55,13
DA:57,0
DA:59,0
DA:60,0
DA:63,3
DA:65,3
DA:67,3
DA:68,2
DA:69,2
DA:70,1
DA:71,1
DA:72,1
DA:75,1
DA:76,1
DA:77,1
DA:81,1
DA:82,1
DA:83,1
DA:86,3
DA:87,3
DA:89,3
DA:91,3
DA:92,2
DA:93,2
DA:94,1
DA:95,1
DA:96,1
DA:99,1
DA:100,1
DA:101,1
DA:105,1
DA:106,1
DA:107,1
DA:110,4
DA:111,4
DA:113,4
DA:114,4
DA:115,4
DA:116,1
DA:117,1
DA:118,1
DA:120,1
DA:121,3
DA:122,3
DA:123,3
DA:125,3
DA:127,2
DA:128,1
DA:129,1
DA:130,1
DA:132,2
DA:133,1
DA:134,1
DA:135,1
DA:138,1
DA:139,1
DA:140,1
DA:144,3
DA:145,3
DA:147,3
DA:148,3
DA:149,3
DA:150,1
DA:151,1
DA:152,1
DA:154,1
DA:155,2
DA:156,2
DA:157,2
DA:159,2
DA:160,2
DA:162,1
DA:163,1
DA:164,1
DA:167,1
DA:168,1
DA:169,1
DA:175,11
DA:176,13
DA:179,13
DA:180,13
DA:181,13
DA:182,13
DA:183,13
DA:184,13
DA:185,13
DA:188,0
DA:189,0
DA:191,0
DA:192,0
DA:194,0
DA:195,0
DA:197,0
DA:198,0
DA:200,0
DA:201,0
DA:202,0
DA:203,0
DA:204,0
DA:205,0
DA:206,0
DA:222,1
DA:223,1
DA:224,1
DA:225,1
DA:226,1
DA:227,1
DA:228,1
DA:229,1
DA:230,1
DA:231,1
DA:232,1
DA:233,1
DA:234,1
DA:235,1
DA:236,1
DA:237,1
DA:238,1
DA:239,1
DA:240,1
DA:241,1
DA:242,1
DA:247,1
DA:248,1
DA:249,1
DA:250,1
DA:251,1
DA:252,1
DA:253,1
DA:254,1
DA:255,1
DA:256,1
DA:257,1
DA:258,1
DA:259,1
DA:260,1
DA:261,1
DA:262,1
DA:263,1
DA:264,1
DA:265,1
DA:266,1
DA:267,1
DA:268,1
DA:269,1
DA:270,1
DA:275,1
DA:276,1
DA:277,1
DA:278,1
DA:279,1
DA:280,1
DA:281,1
DA:282,1
DA:283,1
DA:284,1
DA:285,1
DA:286,1
DA:287,1
DA:288,1
DA:289,1
DA:290,1
DA:291,1
DA:292,1
DA:293,1
DA:294,1
DA:295,1
DA:296,1
DA:297,1
DA:298,1
DA:299,1
DA:300,1
DA:301,1
DA:310,1
DA:311,1
DA:312,1
DA:313,1
DA:314,1
DA:315,1
DA:316,1
DA:317,1
DA:318,1
DA:319,1
DA:320,1
DA:321,1
DA:322,1
DA:323,1
DA:324,1
DA:325,1
DA:326,1
DA:327,1
DA:328,1
DA:329,1
DA:330,1
DA:331,1
DA:332,1
DA:333,1
DA:338,1
DA:339,1
DA:340,1
DA:341,1
DA:342,1
DA:343,1
DA:344,1
DA:345,1
DA:346,1
DA:347,1
DA:348,1
DA:349,1
DA:350,1
DA:351,1
DA:352,1
DA:353,1
DA:354,1
DA:355,1
DA:356,1
DA:357,1
DA:358,1
DA:359,1
DA:360,1
DA:361,1
DA:362,1
DA:363,1
DA:364,1
DA:369,1
DA:370,1
DA:371,1
DA:372,1
DA:373,1
DA:374,1
DA:375,1
DA:376,1
DA:377,1
DA:378,1
DA:379,1
DA:380,1
DA:381,1
DA:382,1
DA:383,1
DA:384,1
DA:385,1
DA:386,1
DA:387,1
DA:388,1
DA:389,1
DA:390,1
DA:391,1
DA:392,1
DA:393,1
DA:394,1
DA:395,1
DA:396,1
DA:397,1
DA:398,1
DA:409,1
DA:410,1
DA:411,1
DA:412,1
DA:413,1
DA:414,1
DA:415,1
DA:416,1
DA:417,1
DA:418,1
DA:419,1
DA:420,1
DA:421,1
DA:422,1
DA:423,1
DA:424,1
DA:425,1
DA:426,1
DA:431,1
DA:432,1
DA:433,1
DA:434,1
DA:435,1
DA:436,1
DA:437,1
DA:438,1
DA:439,1
DA:440,1
DA:441,1
DA:442,1
DA:443,1
DA:444,1
DA:445,1
DA:446,1
DA:447,1
DA:448,1
DA:449,1
DA:450,1
DA:451,1
DA:452,1
DA:453,1
DA:454,1
DA:459,1
DA:460,1
DA:461,1
DA:462,1
DA:463,1
DA:464,1
DA:465,1
DA:466,1
DA:467,1
DA:468,1
DA:469,1
DA:470,1
DA:471,1
DA:472,1
DA:473,1
DA:474,1
DA:475,1
DA:476,1
DA:477,1
DA:478,1
DA:479,1
DA:480,1
DA:481,1
DA:482,1
DA:483,1
DA:484,1
DA:485,1
DA:486,1
DA:491,1
DA:492,1
DA:493,1
DA:494,1
DA:495,1
DA:496,1
DA:497,1
DA:498,1
DA:499,1
DA:500,1
DA:501,1
DA:502,1
DA:503,1
DA:504,1
DA:505,1
DA:506,1
DA:507,1
DA:508,1
DA:509,1
DA:510,1
DA:511,1
DA:512,1
DA:513,1
DA:514,1
DA:515,1
DA:516,1
DA:517,1
DA:518,1
DA:519,1
DA:520,1
DA:529,1
DA:530,1
DA:531,1
DA:532,1
DA:533,1
DA:534,1
DA:535,1
DA:536,1
DA:537,1
DA:538,1
DA:539,1
DA:540,1
DA:541,1
DA:542,1
DA:543,1
DA:544,1
DA:545,1
DA:546,1
DA:547,1
DA:548,1
DA:553,1
DA:554,1
DA:555,1
DA:556,1
DA:557,1
DA:558,1
DA:559,1
DA:560,1
DA:561,1
DA:562,1
DA:563,1
DA:564,1
DA:565,1
DA:566,1
DA:567,1
DA:568,1
DA:569,1
DA:570,1
DA:571,1
DA:572,1
DA:573,1
DA:574,1
DA:575,1
DA:576,1
DA:577,1
DA:578,1
DA:579,1
DA:580,1
DA:585,1
DA:586,1
DA:587,1
DA:588,1
DA:589,1
DA:590,1
DA:591,1
DA:592,1
DA:593,1
DA:594,1
DA:595,1
DA:596,1
DA:597,1
DA:598,1
DA:599,1
DA:600,1
DA:601,1
DA:602,1
DA:603,1
DA:604,1
DA:605,1
DA:606,1
DA:607,1
DA:608,1
DA:609,1
DA:610,1
DA:611,1
DA:612,1
BRF:0
BRH:0
LF:503
LH:478
end_of_record
SF:/home/schuakrk/repos/camera_detection_bot/src/main.rs
FN:19,_RNCNvCs8EXaJNKNjDm_20camera_detection_bot4main0B3_
FN:19,_RNvCs8EXaJNKNjDm_20camera_detection_bot4main
FNDA:0,_RNCNvCs8EXaJNKNjDm_20camera_detection_bot4main0B3_
FNDA:0,_RNvCs8EXaJNKNjDm_20camera_detection_bot4main
FNF:2
FNH:0
DA:19,0
DA:20,0
DA:21,0
DA:22,0
DA:23,0
DA:24,0
DA:25,0
DA:26,0
DA:27,0
BRF:0
BRH:0
LF:17
LH:0
end_of_record
SF:/home/schuakrk/repos/camera_detection_bot/src/models.rs
FN:95,_RNvMs1_NtCs8EXaJNKNjDm_20camera_detection_bot6modelsNtB5_11ObjectPhoto5image
FN:30,_RNvXNtCs8EXaJNKNjDm_20camera_detection_bot6modelsNtB2_8ReceiverNtNtCshdpgpilioSC_4core3fmt7Display3fmt
FN:66,_RNvXs0_NtCs8EXaJNKNjDm_20camera_detection_bot6modelsNtB5_8SettingsNtNtCshdpgpilioSC_4core3fmt7Display3fmt
FN:44,_RNvXs_NtCs8EXaJNKNjDm_20camera_detection_bot6modelsNtB4_8ReceiverINtNtCshdpgpilioSC_4core7convert7TryFromNtNtCs5aYTZ1YATQp_5alloc6string6StringE8try_from
FNDA:4,_RNvMs1_NtCs8EXaJNKNjDm_20camera_detection_bot6modelsNtB5_11ObjectPhoto5image
FNDA:4,_RNvXNtCs8EXaJNKNjDm_20camera_detection_bot6modelsNtB2_8ReceiverNtNtCshdpgpilioSC_4core3fmt7Display3fmt
FNDA:2,_RNvXs0_NtCs8EXaJNKNjDm_20camera_detection_bot6modelsNtB5_8SettingsNtNtCshdpgpilioSC_4core3fmt7Display3fmt
FNDA:4,_RNvXs_NtCs8EXaJNKNjDm_20camera_detection_bot6modelsNtB4_8ReceiverINtNtCshdpgpilioSC_4core7convert7TryFromNtNtCs5aYTZ1YATQp_5alloc6string6StringE8try_from
FNF:4
FNH:4
DA:30,4
DA:31,4
DA:32,4
DA:33,0
DA:34,0
DA:37,4
DA:38,4
DA:44,4
DA:45,4
DA:46,4
DA:47,4
DA:48,1
DA:49,1
DA:50,1
DA:51,1
DA:53,4
DA:66,2
DA:67,2
DA:68,2
DA:69,0
DA:70,0
DA:73,2
DA:74,2
DA:75,2
DA:76,2
DA:77,2
DA:78,2
DA:79,2
DA:95,4
DA:96,4
DA:97,4
BRF:0
BRH:0
LF:31
LH:27
end_of_record